target datalayout = "e-m:e-p270:32:32-p271:32:32-p272:64:64-i64:64-i128:128-f80:128-n8:16:32:64-S128"
target triple = "x86_64-pc-linux-gnu"

%struct.quic_sstream_st = type { %struct.ring_buf, %struct.ossl_list_st_uint_set, %struct.ossl_list_st_uint_set, i8 }
%struct.ring_buf = type { ptr, i64, i64, i64 }
%struct.ossl_list_st_uint_set = type { ptr, ptr, i64 }

@.str = private unnamed_addr constant [35 x i8] c"../openssl/ssl/quic/quic_sstream.c\00", align 1
@.str.1 = private unnamed_addr constant [39 x i8] c"../openssl/include/internal/ring_buf.h\00", align 1

; Function Attrs: inlinehint nounwind uwtable
define internal void @ring_buf_destroy(ptr noundef %0, i32 noundef %1) #3 {
  %3 = alloca ptr, align 8
  %4 = alloca i32, align 4
  store ptr %0, ptr %3, align 8, !tbaa !10
  store i32 %1, ptr %4, align 4, !tbaa !17
  %5 = load i32, ptr %4, align 4, !tbaa !17
  %6 = icmp ne i32 %5, 0
  br i1 %6, label %7, label %14

7:                                                ; preds = %2
  %8 = load ptr, ptr %3, align 8, !tbaa !10
  %9 = getelementptr inbounds nuw %struct.ring_buf, ptr %8, i32 0, i32 0
  %10 = load ptr, ptr %9, align 8, !tbaa !12
  %11 = load ptr, ptr %3, align 8, !tbaa !10
  %12 = getelementptr inbounds nuw %struct.ring_buf, ptr %11, i32 0, i32 1
  %13 = load i64, ptr %12, align 8, !tbaa !14
  call void @CRYPTO_clear_free(ptr noundef %10, i64 noundef %13, ptr noundef @.str.1, i32 noundef 58)
  br label %18

14:                                               ; preds = %2
  %15 = load ptr, ptr %3, align 8, !tbaa !10
  %16 = getelementptr inbounds nuw %struct.ring_buf, ptr %15, i32 0, i32 0
  %17 = load ptr, ptr %16, align 8, !tbaa !12
  call void @CRYPTO_free(ptr noundef %17, ptr noundef @.str.1, i32 noundef 60)
  br label %18

18:                                               ; preds = %14, %7
  %19 = load ptr, ptr %3, align 8, !tbaa !10
  %20 = getelementptr inbounds nuw %struct.ring_buf, ptr %19, i32 0, i32 0
  store ptr null, ptr %20, align 8, !tbaa !12
  %21 = load ptr, ptr %3, align 8, !tbaa !10
  %22 = getelementptr inbounds nuw %struct.ring_buf, ptr %21, i32 0, i32 1
  store i64 0, ptr %22, align 8, !tbaa !14
  ret void
}

; Function Attrs: inlinehint nounwind uwtable
define internal i32 @ring_buf_init(ptr noundef %0) #3 {
  %2 = alloca ptr, align 8
  store ptr %0, ptr %2, align 8, !tbaa !10
  %3 = load ptr, ptr %2, align 8, !tbaa !10
  %4 = getelementptr inbounds nuw %struct.ring_buf, ptr %3, i32 0, i32 0
  store ptr null, ptr %4, align 8, !tbaa !12
  %5 = load ptr, ptr %2, align 8, !tbaa !10
  %6 = getelementptr inbounds nuw %struct.ring_buf, ptr %5, i32 0, i32 1
  store i64 0, ptr %6, align 8, !tbaa !14
  %7 = load ptr, ptr %2, align 8, !tbaa !10
  %8 = getelementptr inbounds nuw %struct.ring_buf, ptr %7, i32 0, i32 3
  store i64 0, ptr %8, align 8, !tbaa !15
  %9 = load ptr, ptr %2, align 8, !tbaa !10
  %10 = getelementptr inbounds nuw %struct.ring_buf, ptr %9, i32 0, i32 2
  store i64 0, ptr %10, align 8, !tbaa !16
  ret i32 1
}

; Function Attrs: nounwind uwtable
define ptr @ossl_quic_sstream_new(i64 noundef %0) #0 {
  %2 = alloca ptr, align 8
  %3 = alloca i64, align 8
  %4 = alloca ptr, align 8
  %5 = alloca i32, align 4
  store i64 %0, ptr %3, align 8, !tbaa !3
  call void @llvm.lifetime.start.p0(i64 8, ptr %4) #6
  %6 = call noalias ptr @CRYPTO_zalloc(i64 noundef 88, ptr noundef @.str, i32 noundef 64)
  store ptr %6, ptr %4, align 8, !tbaa !7
  %7 = load ptr, ptr %4, align 8, !tbaa !7
  %8 = icmp eq ptr %7, null
  br i1 %8, label %9, label %10

9:                                                ; preds = %1
  store ptr null, ptr %2, align 8
  store i32 1, ptr %5, align 4
  br label %29

10:                                               ; preds = %1
  %11 = load ptr, ptr %4, align 8, !tbaa !7
  %12 = getelementptr inbounds nuw %struct.quic_sstream_st, ptr %11, i32 0, i32 0
  %13 = call i32 @ring_buf_init(ptr noundef %12)
  %14 = load ptr, ptr %4, align 8, !tbaa !7
  %15 = getelementptr inbounds nuw %struct.quic_sstream_st, ptr %14, i32 0, i32 0
  %16 = load i64, ptr %3, align 8, !tbaa !3
  %17 = call i32 @ring_buf_resize(ptr noundef %15, i64 noundef %16, i32 noundef 0)
  %18 = icmp ne i32 %17, 0
  br i1 %18, label %23, label %19

19:                                               ; preds = %10
  %20 = load ptr, ptr %4, align 8, !tbaa !7
  %21 = getelementptr inbounds nuw %struct.quic_sstream_st, ptr %20, i32 0, i32 0
  call void @ring_buf_destroy(ptr noundef %21, i32 noundef 0)
  %22 = load ptr, ptr %4, align 8, !tbaa !7
  call void @CRYPTO_free(ptr noundef %22, ptr noundef @.str, i32 noundef 71)
  store ptr null, ptr %2, align 8
  store i32 1, ptr %5, align 4
  br label %29

23:                                               ; preds = %10
  %24 = load ptr, ptr %4, align 8, !tbaa !7
  %25 = getelementptr inbounds nuw %struct.quic_sstream_st, ptr %24, i32 0, i32 1
  call void @ossl_uint_set_init(ptr noundef %25)
  %26 = load ptr, ptr %4, align 8, !tbaa !7
  %27 = getelementptr inbounds nuw %struct.quic_sstream_st, ptr %26, i32 0, i32 2
  call void @ossl_uint_set_init(ptr noundef %27)
  %28 = load ptr, ptr %4, align 8, !tbaa !7
  store ptr %28, ptr %2, align 8
  store i32 1, ptr %5, align 4
  br label %29

29:                                               ; preds = %23, %19, %9
  call void @llvm.lifetime.end.p0(i64 8, ptr %4) #6
  %30 = load ptr, ptr %2, align 8
  ret ptr %30
}