; Function Attrs: nounwind uwtable
define ptr @ossl_quic_sstream_new(i64 noundef %0) local_unnamed_addr #0 {
  %2 = tail call noalias ptr @CRYPTO_zalloc(i64 noundef 88, ptr noundef nonnull @.str, i32 noundef 64) #12
  %3 = icmp eq ptr %2, null
  br i1 %3, label %11, label %4

4:                                                ; preds = %1
  tail call void @llvm.memset.p0.i64(ptr noundef nonnull align 8 dereferenceable(32) %2, i8 0, i64 32, i1 false)
  %5 = tail call fastcc i32 @ring_buf_resize(ptr noundef nonnull %2, i64 noundef %0, i32 noundef 0)
  %.not = icmp eq i32 %5, 0
  br i1 %.not, label %6, label %8

6:                                                ; preds = %4
  %7 = load ptr, ptr %2, align 8, !tbaa !3
  tail call void @CRYPTO_free(ptr noundef %7, ptr noundef nonnull @.str.1, i32 noundef 60) #12
  tail call void @llvm.memset.p0.i64(ptr noundef nonnull align 8 dereferenceable(16) %2, i8 0, i64 16, i1 false)
  tail call void @CRYPTO_free(ptr noundef nonnull %2, ptr noundef nonnull @.str, i32 noundef 71) #12
  br label %11

8:                                                ; preds = %4
  %9 = getelementptr inbounds nuw i8, ptr %2, i64 32
  tail call void @ossl_uint_set_init(ptr noundef nonnull %9) #12
  %10 = getelementptr inbounds nuw i8, ptr %2, i64 56
  tail call void @ossl_uint_set_init(ptr noundef nonnull %10) #12
  br label %11

11:                                               ; preds = %1, %8, %6
  %.0 = phi ptr [ %2, %8 ], [ null, %6 ], [ null, %1 ]
  ret ptr %.0
}